target datalayout = "e-m:e-p270:32:32-p271:32:32-p272:64:64-i64:64-i128:128-f80:128-n8:16:32:64-S128"
target triple = "x86_64-pc-linux-gnu"

%"struct.faiss::Index.base" = type <{ ptr, i32, [4 x i8], i64, i8, i8, [2 x i8], i32, float }>
%"struct.faiss::ProductQuantizer" = type { %"struct.faiss::Quantizer", i64, i64, i64, i64, i8, i32, %"struct.faiss::ClusteringParameters", ptr, %"class.std::vector.0", %"class.std::vector.0", %"class.std::vector.0", %"class.std::vector.0" }
%"struct.faiss::Quantizer" = type { ptr, i64, i64 }
%"struct.faiss::ClusteringParameters" = type <{ i32, i32, i8, i8, i8, i8, i8, [3 x i8], i32, i32, i32, [4 x i8], i64, i8, i8, [6 x i8] }>
%"class.std::vector.0" = type { %"struct.std::_Vector_base.1" }
%"struct.std::_Vector_base.1" = type { %"struct.std::_Vector_base<float, std::allocator<float>>::_Vector_impl" }
%"struct.std::_Vector_base<float, std::allocator<float>>::_Vector_impl" = type { %"struct.std::_Vector_base<float, std::allocator<float>>::_Vector_impl_data" }
%"struct.std::_Vector_base<float, std::allocator<float>>::_Vector_impl_data" = type { ptr, ptr, ptr }
%"struct.faiss::Index" = type <{ ptr, i32, [4 x i8], i64, i8, i8, [2 x i8], i32, float, [4 x i8] }>
%"class.std::__cxx11::basic_string" = type { %"struct.std::__cxx11::basic_string<char>::_Alloc_hider", i64, %union.anon }
%"struct.std::__cxx11::basic_string<char>::_Alloc_hider" = type { ptr }
%union.anon = type { i64, [8 x i8] }
%"struct.faiss::IndexPQ" = type <{ %"struct.faiss::IndexFlatCodes", %"struct.faiss::ProductQuantizer", i8, [7 x i8], %"struct.faiss::PolysemousTraining", i32, i8, [3 x i8], i32, [4 x i8] }>
%"struct.faiss::IndexFlatCodes" = type { %"struct.faiss::Index.base", i64, %"class.std::vector" }
%"class.std::vector" = type { %"struct.std::_Vector_base" }
%"struct.std::_Vector_base" = type { %"struct.std::_Vector_base<unsigned char, std::allocator<unsigned char>>::_Vector_impl" }
%"struct.std::_Vector_base<unsigned char, std::allocator<unsigned char>>::_Vector_impl" = type { %"struct.std::_Vector_base<unsigned char, std::allocator<unsigned char>>::_Vector_impl_data" }
%"struct.std::_Vector_base<unsigned char, std::allocator<unsigned char>>::_Vector_impl_data" = type { ptr, ptr, ptr }
%"struct.faiss::PolysemousTraining" = type { %"struct.faiss::SimulatedAnnealingParameters.base", i32, i32, double, i64, %"class.std::__cxx11::basic_string" }
%"struct.faiss::SimulatedAnnealingParameters.base" = type <{ double, double, i32, i32, i32, i32, i8, i8 }>

@.str = private unnamed_addr constant [74 x i8] c"PQ training on %ld points, remains %ld points: training polysemous on %s\0A\00", align 1
@.str.1 = private unnamed_addr constant [10 x i8] c"centroids\00", align 1
@.str.2 = private unnamed_addr constant [6 x i8] c"these\00", align 1

; Function Attrs: mustprogress uwtable
define void @_ZN5faiss7IndexPQ5trainElPKf(ptr noundef nonnull align 8 dereferenceable(404) %0, i64 noundef %1, ptr noundef %2) unnamed_addr #1 align 2 {
  %4 = alloca ptr, align 8
  %5 = alloca i64, align 8
  %6 = alloca ptr, align 8
  %7 = alloca i64, align 8
  store ptr %0, ptr %4, align 8, !tbaa !50
  store i64 %1, ptr %5, align 8, !tbaa !11
  store ptr %2, ptr %6, align 8, !tbaa !13
  %8 = load ptr, ptr %4, align 8
  %9 = getelementptr inbounds nuw %"struct.faiss::IndexPQ", ptr %8, i32 0, i32 2
  %10 = load i8, ptr %9, align 8, !tbaa !52, !range !21, !noundef !22
  %11 = trunc i8 %10 to i1
  br i1 %11, label %16, label %12

12:                                               ; preds = %3
  %13 = getelementptr inbounds nuw %"struct.faiss::IndexPQ", ptr %8, i32 0, i32 1
  %14 = load i64, ptr %5, align 8, !tbaa !11
  %15 = load ptr, ptr %6, align 8, !tbaa !13
  call void @_ZN5faiss16ProductQuantizer5trainEmPKf(ptr noundef nonnull align 8 dereferenceable(216) %13, i64 noundef %14, ptr noundef %15)
  br label %59

16:                                               ; preds = %3
  call void @llvm.lifetime.start.p0(i64 8, ptr %7) #20
  %17 = getelementptr inbounds nuw %"struct.faiss::IndexPQ", ptr %8, i32 0, i32 4
  %18 = getelementptr inbounds nuw %"struct.faiss::PolysemousTraining", ptr %17, i32 0, i32 2
  %19 = load i32, ptr %18, align 8, !tbaa !67
  %20 = sext i32 %19 to i64
  store i64 %20, ptr %7, align 8, !tbaa !11
  %21 = load i64, ptr %7, align 8, !tbaa !11
  %22 = load i64, ptr %5, align 8, !tbaa !11
  %23 = sdiv i64 %22, 4
  %24 = icmp sgt i64 %21, %23
  br i1 %24, label %25, label %28

25:                                               ; preds = %16
  %26 = load i64, ptr %5, align 8, !tbaa !11
  %27 = sdiv i64 %26, 4
  store i64 %27, ptr %7, align 8, !tbaa !11
  br label %28

28:                                               ; preds = %25, %16
  %29 = getelementptr inbounds nuw %"struct.faiss::Index", ptr %8, i32 0, i32 4
  %30 = load i8, ptr %29, align 8, !tbaa !15, !range !21, !noundef !22
  %31 = trunc i8 %30 to i1
  br i1 %31, label %32, label %41

32:                                               ; preds = %28
  %33 = load i64, ptr %5, align 8, !tbaa !11
  %34 = load i64, ptr %7, align 8, !tbaa !11
  %35 = sub nsw i64 %33, %34
  %36 = load i64, ptr %7, align 8, !tbaa !11
  %37 = load i64, ptr %7, align 8, !tbaa !11
  %38 = icmp eq i64 %37, 0
  %39 = select i1 %38, ptr @.str.1, ptr @.str.2
  %40 = call i32 (ptr, ...) @printf(ptr noundef @.str, i64 noundef %35, i64 noundef %36, ptr noundef %39)
  br label %41

41:                                               ; preds = %32, %28
  %42 = getelementptr inbounds nuw %"struct.faiss::IndexPQ", ptr %8, i32 0, i32 1
  %43 = load i64, ptr %5, align 8, !tbaa !11
  %44 = load i64, ptr %7, align 8, !tbaa !11
  %45 = sub nsw i64 %43, %44
  %46 = load ptr, ptr %6, align 8, !tbaa !13
  call void @_ZN5faiss16ProductQuantizer5trainEmPKf(ptr noundef nonnull align 8 dereferenceable(216) %42, i64 noundef %45, ptr noundef %46)
  %47 = getelementptr inbounds nuw %"struct.faiss::IndexPQ", ptr %8, i32 0, i32 4
  %48 = getelementptr inbounds nuw %"struct.faiss::IndexPQ", ptr %8, i32 0, i32 1
  %49 = load i64, ptr %7, align 8, !tbaa !11
  %50 = load ptr, ptr %6, align 8, !tbaa !13
  %51 = load i64, ptr %5, align 8, !tbaa !11
  %52 = load i64, ptr %7, align 8, !tbaa !11
  %53 = sub nsw i64 %51, %52
  %54 = getelementptr inbounds nuw %"struct.faiss::Index", ptr %8, i32 0, i32 1
  %55 = load i32, ptr %54, align 8, !tbaa !45
  %56 = sext i32 %55 to i64
  %57 = mul nsw i64 %53, %56
  %58 = getelementptr inbounds float, ptr %50, i64 %57
  call void @_ZNK5faiss18PolysemousTraining23optimize_pq_for_hammingERNS_16ProductQuantizerEmPKf(ptr noundef nonnull align 8 dereferenceable(96) %47, ptr noundef nonnull align 8 dereferenceable(216) %48, i64 noundef %49, ptr noundef %58)
  call void @llvm.lifetime.end.p0(i64 8, ptr %7) #20
  br label %59

59:                                               ; preds = %41, %12
  %60 = getelementptr inbounds nuw %"struct.faiss::Index", ptr %8, i32 0, i32 5
  store i8 1, ptr %60, align 1, !tbaa !34
  ret void
}