; Function Attrs: mustprogress uwtable
define void @_ZN5faiss7IndexPQ5trainElPKf(ptr noundef nonnull align 8 dereferenceable(404) %0, i64 noundef %1, ptr noundef %2) unnamed_addr #1 align 2 {
  %4 = getelementptr inbounds nuw i8, ptr %0, i64 288
  %5 = load i8, ptr %4, align 8, !tbaa !60, !range !20, !noundef !21
  %6 = trunc nuw i8 %5 to i1
  br i1 %6, label %9, label %7

7:                                                ; preds = %3
  %8 = getelementptr inbounds nuw i8, ptr %0, i64 72
  tail call void @_ZN5faiss16ProductQuantizer5trainEmPKf(ptr noundef nonnull align 8 dereferenceable(216) %8, i64 noundef %1, ptr noundef %2)
  br label %29

9:                                                ; preds = %3
  %10 = getelementptr inbounds nuw i8, ptr %0, i64 296
  %11 = getelementptr inbounds nuw i8, ptr %0, i64 336
  %12 = load i32, ptr %11, align 8, !tbaa !71
  %13 = sext i32 %12 to i64
  %14 = sdiv i64 %1, 4
  %spec.select = tail call i64 @llvm.smin.i64(i64 %14, i64 %13)
  %15 = getelementptr inbounds nuw i8, ptr %0, i64 24
  %16 = load i8, ptr %15, align 8, !tbaa !13, !range !20, !noundef !21
  %17 = trunc nuw i8 %16 to i1
  %18 = sub nsw i64 %1, %spec.select
  br i1 %17, label %19, label %._crit_edge

19:                                               ; preds = %9
  %20 = icmp eq i64 %spec.select, 0
  %21 = select i1 %20, ptr @.str.1, ptr @.str.2
  %22 = tail call i32 (ptr, ...) @printf(ptr noundef nonnull dereferenceable(1) @.str, i64 noundef %18, i64 noundef %spec.select, ptr noundef nonnull %21)
  br label %._crit_edge

._crit_edge:                                      ; preds = %9, %19
  %23 = getelementptr inbounds nuw i8, ptr %0, i64 72
  tail call void @_ZN5faiss16ProductQuantizer5trainEmPKf(ptr noundef nonnull align 8 dereferenceable(216) %23, i64 noundef %18, ptr noundef %2)
  %24 = getelementptr inbounds nuw i8, ptr %0, i64 8
  %25 = load i32, ptr %24, align 8, !tbaa !50
  %26 = sext i32 %25 to i64
  %27 = mul nsw i64 %18, %26
  %28 = getelementptr inbounds float, ptr %2, i64 %27
  tail call void @_ZNK5faiss18PolysemousTraining23optimize_pq_for_hammingERNS_16ProductQuantizerEmPKf(ptr noundef nonnull align 8 dereferenceable(96) %10, ptr noundef nonnull align 8 dereferenceable(216) %23, i64 noundef %spec.select, ptr noundef %28)
  br label %29

29:                                               ; preds = %._crit_edge, %7
  %30 = getelementptr inbounds nuw i8, ptr %0, i64 25
  store i8 1, ptr %30, align 1, !tbaa !32
  ret void
}